	.file	"vec_generic.c"
	.text
.Ltext0:
	.p2align 4,,15
	.globl	myrt_vec_dot
	.type	myrt_vec_dot, @function
myrt_vec_dot:
.LFB33:
	.file 1 "arch/vec_generic.c"
	.loc 1 28 0
	.cfi_startproc
.LVL0:
	.loc 1 30 0
	movss	(%rdi), %xmm0
	movss	4(%rdi), %xmm1
	mulss	(%rsi), %xmm0
	mulss	4(%rsi), %xmm1
	addss	%xmm1, %xmm0
	movss	8(%rdi), %xmm1
	mulss	8(%rsi), %xmm1
	addss	%xmm1, %xmm0
	movss	12(%rdi), %xmm1
	mulss	12(%rsi), %xmm1
	addss	%xmm1, %xmm0
	.loc 1 32 0
	ret
	.cfi_endproc
.LFE33:
	.size	myrt_vec_dot, .-myrt_vec_dot
	.p2align 4,,15
	.globl	myrt_vec_magnitude
	.type	myrt_vec_magnitude, @function
myrt_vec_magnitude:
.LFB34:
	.loc 1 34 0
	.cfi_startproc
.LVL1:
	subq	$8, %rsp
	.cfi_def_cfa_offset 16
.LBB20:
.LBB21:
	.loc 1 30 0
	movss	(%rdi), %xmm1
	movss	4(%rdi), %xmm3
	mulss	%xmm1, %xmm1
	mulss	%xmm3, %xmm3
	movss	8(%rdi), %xmm2
	mulss	%xmm2, %xmm2
	movss	12(%rdi), %xmm0
	mulss	%xmm0, %xmm0
	addss	%xmm3, %xmm1
	addss	%xmm2, %xmm1
	addss	%xmm0, %xmm1
.LBE21:
.LBE20:
	.loc 1 36 0
	sqrtss	%xmm1, %xmm0
	ucomiss	%xmm0, %xmm0
	jp	.L6
.LVL2:
.L3:
	.loc 1 38 0
	addq	$8, %rsp
	.cfi_remember_state
	.cfi_def_cfa_offset 8
	ret
.LVL3:
.L6:
	.cfi_restore_state
	.loc 1 36 0
	movaps	%xmm1, %xmm0
	call	sqrtf@PLT
.LVL4:
	.p2align 4,,2
	jmp	.L3
	.cfi_endproc
.LFE34:
	.size	myrt_vec_magnitude, .-myrt_vec_magnitude
	.p2align 4,,15
	.globl	myrt_vec_angle
	.type	myrt_vec_angle, @function
myrt_vec_angle:
.LFB35:
	.loc 1 40 0
	.cfi_startproc
.LVL5:
	subq	$56, %rsp
	.cfi_def_cfa_offset 64
.LBB22:
.LBB23:
	.loc 1 30 0
	movss	(%rdi), %xmm0
	movss	4(%rdi), %xmm4
	movss	(%rsi), %xmm1
	movss	4(%rsi), %xmm5
	mulss	%xmm0, %xmm1
	mulss	%xmm4, %xmm5
	movss	8(%rdi), %xmm3
.LBE23:
.LBE22:
.LBB28:
.LBB29:
	mulss	%xmm0, %xmm0
.LBE29:
.LBE28:
.LBB34:
.LBB24:
	movss	12(%rdi), %xmm2
.LBE24:
.LBE34:
.LBB35:
.LBB30:
	mulss	%xmm4, %xmm4
.LBE30:
.LBE35:
.LBB36:
.LBB25:
	addss	%xmm5, %xmm1
	movss	8(%rsi), %xmm5
	mulss	%xmm3, %xmm5
.LBE25:
.LBE36:
.LBB37:
.LBB31:
	addss	%xmm4, %xmm0
	mulss	%xmm3, %xmm3
.LBE31:
.LBE37:
.LBB38:
.LBB26:
	addss	%xmm5, %xmm1
	movss	12(%rsi), %xmm5
	mulss	%xmm2, %xmm5
.LBE26:
.LBE38:
.LBB39:
.LBB32:
	addss	%xmm3, %xmm0
	mulss	%xmm2, %xmm2
.LBE32:
.LBE39:
.LBB40:
.LBB27:
	addss	%xmm5, %xmm1
.LVL6:
.LBE27:
.LBE40:
.LBB41:
.LBB33:
	addss	%xmm2, %xmm0
.LBE33:
.LBE41:
	.loc 1 43 0
	sqrtss	%xmm0, %xmm2
	ucomiss	%xmm2, %xmm2
	jp	.L12
.LVL7:
.L8:
.LBB42:
.LBB43:
	.loc 1 30 0
	movss	(%rsi), %xmm3
	movss	4(%rsi), %xmm5
	mulss	%xmm3, %xmm3
	mulss	%xmm5, %xmm5
	movss	8(%rsi), %xmm4
	mulss	%xmm4, %xmm4
	movss	12(%rsi), %xmm0
	mulss	%xmm0, %xmm0
	addss	%xmm5, %xmm3
	addss	%xmm4, %xmm3
	addss	%xmm0, %xmm3
.LBE43:
.LBE42:
	.loc 1 44 0
	sqrtss	%xmm3, %xmm0
	ucomiss	%xmm0, %xmm0
	jp	.L13
.LVL8:
.L10:
	.loc 1 43 0
	mulss	%xmm0, %xmm2
.LVL9:
	.loc 1 46 0
	movaps	%xmm1, %xmm0
	.loc 1 48 0
	addq	$56, %rsp
	.cfi_remember_state
	.cfi_def_cfa_offset 8
	.loc 1 46 0
	divss	%xmm2, %xmm0
	jmp	acosf@PLT
.LVL10:
.L12:
	.cfi_restore_state
	.loc 1 43 0
	movq	%rsi, 40(%rsp)
	movss	%xmm1, (%rsp)
	call	sqrtf@PLT
.LVL11:
	movss	(%rsp), %xmm1
	movaps	%xmm0, %xmm2
	movq	40(%rsp), %rsi
	jmp	.L8
.LVL12:
.L13:
	.loc 1 44 0
	movaps	%xmm3, %xmm0
	movss	%xmm1, (%rsp)
	movss	%xmm2, 16(%rsp)
	call	sqrtf@PLT
.LVL13:
	movss	16(%rsp), %xmm2
	movss	(%rsp), %xmm1
	jmp	.L10
	.cfi_endproc
.LFE35:
	.size	myrt_vec_angle, .-myrt_vec_angle
	.p2align 4,,15
	.globl	myrt_vec_normalize
	.type	myrt_vec_normalize, @function
myrt_vec_normalize:
.LFB36:
	.loc 1 50 0
	.cfi_startproc
.LVL14:
	subq	$24, %rsp
	.cfi_def_cfa_offset 32
	.loc 1 50 0
	movq	%rdi, %rax
.LBB50:
.LBB51:
.LBB52:
.LBB53:
	.loc 1 30 0
	movss	(%rdi), %xmm5
	movss	4(%rdi), %xmm4
	movaps	%xmm5, %xmm1
	movaps	%xmm4, %xmm0
	mulss	%xmm5, %xmm1
	movss	8(%rdi), %xmm3
	mulss	%xmm4, %xmm0
	movss	12(%rdi), %xmm2
	addss	%xmm0, %xmm1
	movaps	%xmm3, %xmm0
	mulss	%xmm3, %xmm0
	addss	%xmm0, %xmm1
	movaps	%xmm2, %xmm0
	mulss	%xmm2, %xmm0
	addss	%xmm0, %xmm1
.LBE53:
.LBE52:
	.loc 1 36 0
	sqrtss	%xmm1, %xmm0
	ucomiss	%xmm0, %xmm0
	jp	.L17
.LVL15:
.L15:
.LBE51:
.LBE50:
	.loc 1 52 0
	movss	.LC0(%rip), %xmm1
	divss	%xmm0, %xmm1
.LVL16:
.LBB55:
.LBB56:
	.loc 1 82 0
	mulss	%xmm1, %xmm5
	.loc 1 83 0
	mulss	%xmm1, %xmm4
	.loc 1 84 0
	mulss	%xmm1, %xmm3
	.loc 1 85 0
	mulss	%xmm2, %xmm1
.LVL17:
	.loc 1 82 0
	movss	%xmm5, (%rax)
	.loc 1 83 0
	movss	%xmm4, 4(%rax)
	.loc 1 84 0
	movss	%xmm3, 8(%rax)
	.loc 1 85 0
	movss	%xmm1, 12(%rax)
.LBE56:
.LBE55:
	.loc 1 54 0
	addq	$24, %rsp
	.cfi_remember_state
	.cfi_def_cfa_offset 8
	ret
.LVL18:
.L17:
	.cfi_restore_state
.LBB57:
.LBB54:
	.loc 1 36 0
	movaps	%xmm1, %xmm0
	movq	%rdi, 8(%rsp)
	call	sqrtf@PLT
.LVL19:
	movq	8(%rsp), %rax
	movss	(%rax), %xmm5
	movss	4(%rax), %xmm4
	movss	8(%rax), %xmm3
	movss	12(%rax), %xmm2
	jmp	.L15
.LBE54:
.LBE57:
	.cfi_endproc
.LFE36:
	.size	myrt_vec_normalize, .-myrt_vec_normalize
	.p2align 4,,15
	.globl	myrt_vec_add
	.type	myrt_vec_add, @function
myrt_vec_add:
.LFB37:
	.loc 1 57 0
	.cfi_startproc
.LVL20:
	.loc 1 59 0
	movss	(%rdi), %xmm0
	.loc 1 57 0
	movq	%rdi, %rax
	.loc 1 59 0
	addss	(%rsi), %xmm0
	movss	%xmm0, (%rdi)
	.loc 1 60 0
	movss	4(%rdi), %xmm0
	addss	4(%rsi), %xmm0
	movss	%xmm0, 4(%rdi)
	.loc 1 61 0
	movss	8(%rdi), %xmm0
	addss	8(%rsi), %xmm0
	movss	%xmm0, 8(%rdi)
	.loc 1 62 0
	movss	12(%rdi), %xmm0
	addss	12(%rsi), %xmm0
	movss	%xmm0, 12(%rdi)
	.loc 1 66 0
	ret
	.cfi_endproc
.LFE37:
	.size	myrt_vec_add, .-myrt_vec_add
	.p2align 4,,15
	.globl	myrt_vec_sub
	.type	myrt_vec_sub, @function
myrt_vec_sub:
.LFB38:
	.loc 1 69 0
	.cfi_startproc
.LVL21:
	.loc 1 71 0
	movss	(%rdi), %xmm0
	.loc 1 69 0
	movq	%rdi, %rax
	.loc 1 71 0
	subss	(%rsi), %xmm0
	movss	%xmm0, (%rdi)
	.loc 1 72 0
	movss	4(%rdi), %xmm0
	subss	4(%rsi), %xmm0
	movss	%xmm0, 4(%rdi)
	.loc 1 73 0
	movss	8(%rdi), %xmm0
	subss	8(%rsi), %xmm0
	movss	%xmm0, 8(%rdi)
	.loc 1 74 0
	movss	12(%rdi), %xmm0
	subss	12(%rsi), %xmm0
	movss	%xmm0, 12(%rdi)
	.loc 1 78 0
	ret
	.cfi_endproc
.LFE38:
	.size	myrt_vec_sub, .-myrt_vec_sub
	.p2align 4,,15
	.globl	myrt_vec_scale
	.type	myrt_vec_scale, @function
myrt_vec_scale:
.LFB39:
	.loc 1 80 0
	.cfi_startproc
.LVL22:
	.loc 1 82 0
	xorps	%xmm1, %xmm1
	.loc 1 80 0
	movq	%rdi, %rax
	.loc 1 82 0
	shufps	$0, %xmm0, %xmm0
.LVL23:
	movlps	(%rdi), %xmm1
	movhps	8(%rdi), %xmm1
	mulps	%xmm0, %xmm1
	movlps	%xmm1, (%rdi)
	movhps	%xmm1, 8(%rdi)
	.loc 1 89 0
	ret
	.cfi_endproc
.LFE39:
	.size	myrt_vec_scale, .-myrt_vec_scale
	.p2align 4,,15
	.globl	myrt_vec_cross
	.type	myrt_vec_cross, @function
myrt_vec_cross:
.LFB40:
	.loc 1 92 0
	.cfi_startproc
.LVL24:
	.loc 1 95 0
	movss	4(%rdi), %xmm4
	.loc 1 92 0
	movq	%rdi, %rax
	.loc 1 95 0
	movss	8(%rdi), %xmm1
	movaps	%xmm4, %xmm2
	movaps	%xmm1, %xmm7
	movss	8(%rsi), %xmm6
	movss	4(%rsi), %xmm5
.LVL25:
	mulss	%xmm6, %xmm2
	.loc 1 96 0
	movss	(%rsi), %xmm3
	.loc 1 95 0
	mulss	%xmm5, %xmm7
	.loc 1 96 0
	movss	(%rdi), %xmm0
.LVL26:
	mulss	%xmm3, %xmm1
	mulss	%xmm0, %xmm6
	.loc 1 97 0
	mulss	%xmm4, %xmm3
	mulss	%xmm5, %xmm0
	.loc 1 95 0
	subss	%xmm7, %xmm2
	.loc 1 96 0
	subss	%xmm6, %xmm1
	.loc 1 97 0
	subss	%xmm3, %xmm0
	.loc 1 99 0
	movss	%xmm2, (%rdi)
	.loc 1 100 0
	movss	%xmm1, 4(%rdi)
	.loc 1 101 0
	movss	%xmm0, 8(%rdi)
	.loc 1 105 0
	ret
	.cfi_endproc
.LFE40:
	.size	myrt_vec_cross, .-myrt_vec_cross
	.p2align 4,,15
	.globl	myrt_vec_reflection
	.type	myrt_vec_reflection, @function
myrt_vec_reflection:
.LFB41:
	.loc 1 108 0
	.cfi_startproc
.LVL27:
	pushq	%rbp
	.cfi_def_cfa_offset 16
	.cfi_offset 6, -16
	movq	%rsi, %rbp
	pushq	%rbx
	.cfi_def_cfa_offset 24
	.cfi_offset 3, -24
	movq	%rdi, %rbx
	subq	$24, %rsp
	.cfi_def_cfa_offset 48
	.loc 1 112 0
	movq	%rsp, %rdi
.LVL28:
	call	myrt_vec_copy@PLT
.LVL29:
.LBB58:
.LBB59:
	.loc 1 30 0
	movss	(%rbx), %xmm7
.LBE59:
.LBE58:
	.loc 1 115 0
	movq	%rsp, %rsi
.LBB63:
.LBB60:
	.loc 1 30 0
	movss	4(%rbx), %xmm6
.LBE60:
.LBE63:
	.loc 1 115 0
	movq	%rbx, %rdi
.LBB64:
.LBB61:
	.loc 1 30 0
	movss	0(%rbp), %xmm0
	movss	4(%rbp), %xmm1
	mulss	%xmm7, %xmm0
	mulss	%xmm6, %xmm1
	movss	8(%rbx), %xmm5
	movss	12(%rbx), %xmm4
.LBE61:
.LBE64:
.LBB65:
.LBB66:
	.loc 1 83 0
	movss	4(%rsp), %xmm3
	.loc 1 84 0
	movss	8(%rsp), %xmm2
.LBE66:
.LBE65:
.LBB69:
.LBB62:
	.loc 1 30 0
	addss	%xmm1, %xmm0
	movss	8(%rbp), %xmm1
	mulss	%xmm5, %xmm1
	addss	%xmm1, %xmm0
	movss	12(%rbp), %xmm1
	mulss	%xmm4, %xmm1
	addss	%xmm1, %xmm0
.LBE62:
.LBE69:
.LBB70:
.LBB67:
	.loc 1 85 0
	movss	12(%rsp), %xmm1
.LBE67:
.LBE70:
	.loc 1 113 0
	addss	%xmm0, %xmm0
.LVL30:
.LBB71:
.LBB68:
	.loc 1 83 0
	mulss	%xmm0, %xmm3
	.loc 1 84 0
	mulss	%xmm0, %xmm2
	.loc 1 85 0
	mulss	%xmm0, %xmm1
.LVL31:
	.loc 1 82 0
	mulss	(%rsp), %xmm0
.LVL32:
.LBE68:
.LBE71:
.LBB72:
.LBB73:
	.loc 1 72 0
	subss	%xmm6, %xmm3
	.loc 1 73 0
	subss	%xmm5, %xmm2
	.loc 1 74 0
	subss	%xmm4, %xmm1
	.loc 1 72 0
	movss	%xmm3, 4(%rsp)
	.loc 1 71 0
	subss	%xmm7, %xmm0
	.loc 1 73 0
	movss	%xmm2, 8(%rsp)
	.loc 1 74 0
	movss	%xmm1, 12(%rsp)
	.loc 1 71 0
	movss	%xmm0, (%rsp)
.LBE73:
.LBE72:
	.loc 1 115 0
	call	myrt_vec_copy@PLT
.LVL33:
	.loc 1 119 0
	addq	$24, %rsp
	.cfi_def_cfa_offset 24
.LVL34:
	movq	%rbx, %rax
	popq	%rbx
	.cfi_def_cfa_offset 16
.LVL35:
	popq	%rbp
	.cfi_def_cfa_offset 8
.LVL36:
	ret
	.cfi_endproc
.LFE41:
	.size	myrt_vec_reflection, .-myrt_vec_reflection
	.section	.rodata.cst4,"aM",@progbits,4
	.align 4
.LC0:
	.long	1065353216
	.text
.Letext0:
	.file 2 "/home/alex/c-programs/git-programs/myrt/include/vec.h"
	.file 3 "/usr/include/bits/types.h"
	.file 4 "/usr/lib/gcc/x86_64-redhat-linux/4.6.2/include/stddef.h"
	.file 5 "/usr/include/libio.h"
	.file 6 "/usr/include/stdio.h"
	.file 7 "/usr/include/bits/mathcalls.h"
	.section	.note.GNU-stack,"",@progbits
